target datalayout = "e-m:e-p270:32:32-p271:32:32-p272:64:64-i64:64-i128:128-f80:128-n8:16:32:64-S128"
target triple = "x86_64-unknown-linux-gnu"

%class.ast = type { i32, i24, i32, i32 }
%struct.ast_lt_proc = type { i8 }

; Function Attrs: mustprogress nounwind uwtable
define linkonce_odr hidden noundef i32 @_ZNK3ast6get_idEv(ptr noundef nonnull align 4 dereferenceable(16) %this) #5 comdat align 2 {
entry:
  %this.addr = alloca ptr, align 8
  store ptr %this, ptr %this.addr, align 8
  %this1 = load ptr, ptr %this.addr, align 8
  %m_id = getelementptr inbounds %class.ast, ptr %this1, i32 0, i32 0
  %0 = load i32, ptr %m_id, align 4
  ret i32 %0
}

; Function Attrs: mustprogress uwtable
define linkonce_odr hidden noundef zeroext i1 @_ZNK11ast_lt_procclEPK3astS2_(ptr noundef nonnull align 1 dereferenceable(1) %this, ptr noundef %n1, ptr noundef %n2) #4 comdat align 2 {
entry:
  %this.addr = alloca ptr, align 8
  %n1.addr = alloca ptr, align 8
  %n2.addr = alloca ptr, align 8
  store ptr %this, ptr %this.addr, align 8
  store ptr %n1, ptr %n1.addr, align 8
  store ptr %n2, ptr %n2.addr, align 8
  %0 = load ptr, ptr %n1.addr, align 8
  %call = call noundef i32 @_ZNK3ast6get_idEv(ptr noundef nonnull align 4 dereferenceable(16) %0)
  %1 = load ptr, ptr %n2.addr, align 8
  %call2 = call noundef i32 @_ZNK3ast6get_idEv(ptr noundef nonnull align 4 dereferenceable(16) %1)
  %cmp = icmp ult i32 %call, %call2
  ret i1 %cmp
}

; Function Attrs: mustprogress uwtable
define hidden noundef zeroext i1 @_ZN6spacer10sk_lt_procclEPK3appS3_(ptr noundef nonnull align 1 dereferenceable(1) %this, ptr noundef %a1, ptr noundef %a2) #4 align 2 {
entry:
  %retval = alloca i1, align 1
  %this.addr = alloca ptr, align 8
  %a1.addr = alloca ptr, align 8
  %a2.addr = alloca ptr, align 8
  %n1 = alloca i32, align 4
  %n2 = alloca i32, align 4
  %z1 = alloca i8, align 1
  %z2 = alloca i8, align 1
  %ref.tmp = alloca %struct.ast_lt_proc, align 1
  store ptr %this, ptr %this.addr, align 8
  store ptr %a1, ptr %a1.addr, align 8
  store ptr %a2, ptr %a2.addr, align 8
  %0 = load ptr, ptr %a1.addr, align 8
  %1 = load ptr, ptr %a2.addr, align 8
  %cmp = icmp eq ptr %0, %1
  br i1 %cmp, label %if.then, label %if.end

if.then:                                          ; preds = %entry
  store i1 false, ptr %retval, align 1
  br label %return

if.end:                                           ; preds = %entry
  store i32 0, ptr %n1, align 4
  store i32 0, ptr %n2, align 4
  %2 = load ptr, ptr %a1.addr, align 8
  %call = call noundef zeroext i1 @_ZN6spacer11is_zk_constEPK3appRi(ptr noundef %2, ptr noundef nonnull align 4 dereferenceable(4) %n1)
  %frombool = zext i1 %call to i8
  store i8 %frombool, ptr %z1, align 1
  %3 = load ptr, ptr %a2.addr, align 8
  %call2 = call noundef zeroext i1 @_ZN6spacer11is_zk_constEPK3appRi(ptr noundef %3, ptr noundef nonnull align 4 dereferenceable(4) %n2)
  %frombool3 = zext i1 %call2 to i8
  store i8 %frombool3, ptr %z2, align 1
  %4 = load i8, ptr %z1, align 1
  %tobool = trunc i8 %4 to i1
  br i1 %tobool, label %land.lhs.true, label %if.end7

land.lhs.true:                                    ; preds = %if.end
  %5 = load i8, ptr %z2, align 1
  %tobool4 = trunc i8 %5 to i1
  br i1 %tobool4, label %if.then5, label %if.end7

if.then5:                                         ; preds = %land.lhs.true
  %6 = load i32, ptr %n1, align 4
  %7 = load i32, ptr %n2, align 4
  %cmp6 = icmp slt i32 %6, %7
  store i1 %cmp6, ptr %retval, align 1
  br label %return

if.end7:                                          ; preds = %land.lhs.true, %if.end
  %8 = load i8, ptr %z1, align 1
  %tobool8 = trunc i8 %8 to i1
  %conv = zext i1 %tobool8 to i32
  %9 = load i8, ptr %z2, align 1
  %tobool9 = trunc i8 %9 to i1
  %conv10 = zext i1 %tobool9 to i32
  %cmp11 = icmp ne i32 %conv, %conv10
  br i1 %cmp11, label %if.then12, label %if.end14

if.then12:                                        ; preds = %if.end7
  %10 = load i8, ptr %z1, align 1
  %tobool13 = trunc i8 %10 to i1
  store i1 %tobool13, ptr %retval, align 1
  br label %return

if.end14:                                         ; preds = %if.end7
  %11 = load ptr, ptr %a1.addr, align 8
  %12 = load ptr, ptr %a2.addr, align 8
  %call15 = call noundef zeroext i1 @_ZNK11ast_lt_procclEPK3astS2_(ptr noundef nonnull align 1 dereferenceable(1) %ref.tmp, ptr noundef %11, ptr noundef %12)
  store i1 %call15, ptr %retval, align 1
  br label %return

return:                                           ; preds = %if.end14, %if.then12, %if.then5, %if.then
  %13 = load i1, ptr %retval, align 1
  ret i1 %13
}