; Function Attrs: mustprogress uwtable
define hidden noundef zeroext i1 @_ZN6spacer10sk_lt_procclEPK3appS3_(ptr nocapture noundef nonnull readnone align 1 dereferenceable(1) %this, ptr noundef readonly %a1, ptr noundef readonly %a2) local_unnamed_addr #3 align 2 {
entry:
  %n1 = alloca i32, align 4
  %n2 = alloca i32, align 4
  %cmp = icmp eq ptr %a1, %a2
  br i1 %cmp, label %return, label %if.end

if.end:                                           ; preds = %entry
  store i32 0, ptr %n1, align 4
  store i32 0, ptr %n2, align 4
  %call = call noundef zeroext i1 @_ZN6spacer11is_zk_constEPK3appRi(ptr noundef %a1, ptr noundef nonnull align 4 dereferenceable(4) %n1)
  %call2 = call noundef zeroext i1 @_ZN6spacer11is_zk_constEPK3appRi(ptr noundef %a2, ptr noundef nonnull align 4 dereferenceable(4) %n2)
  %brmerge.demorgan = and i1 %call, %call2
  br i1 %brmerge.demorgan, label %if.then5, label %if.end7

if.then5:                                         ; preds = %if.end
  %0 = load i32, ptr %n1, align 4
  %1 = load i32, ptr %n2, align 4
  %cmp6 = icmp slt i32 %0, %1
  br label %return

if.end7:                                          ; preds = %if.end
  %2 = xor i1 %call, %call2
  br i1 %2, label %return, label %if.end14

if.end14:                                         ; preds = %if.end7
  %3 = load i32, ptr %a1, align 4
  %4 = load i32, ptr %a2, align 4
  %cmp.i = icmp ult i32 %3, %4
  br label %return

return:                                           ; preds = %if.end7, %entry, %if.end14, %if.then5
  %retval.0 = phi i1 [ %cmp6, %if.then5 ], [ %cmp.i, %if.end14 ], [ false, %entry ], [ %call, %if.end7 ]
  ret i1 %retval.0
}